; Function Attrs: mustprogress uwtable
define hidden noundef nonnull align 8 dereferenceable(48) ptr @_ZN5ceres8internal19TripletSparseMatrixaSERKS1_(ptr noundef nonnull returned align 8 dereferenceable(48) %0, ptr noundef nonnull readonly align 8 dereferenceable(48) %1) local_unnamed_addr #4 align 2 {
  %3 = icmp eq ptr %0, %1
  br i1 %3, label %_ZN5ceres8internal19TripletSparseMatrix8CopyDataERKS1_.exit, label %4

4:                                                ; preds = %2
  %5 = getelementptr inbounds i8, ptr %1, i64 8
  %6 = load i32, ptr %5, align 8
  %7 = getelementptr inbounds i8, ptr %0, i64 8
  store i32 %6, ptr %7, align 8
  %8 = getelementptr inbounds i8, ptr %1, i64 12
  %9 = load i32, ptr %8, align 4
  %10 = getelementptr inbounds i8, ptr %0, i64 12
  store i32 %9, ptr %10, align 4
  %11 = getelementptr inbounds i8, ptr %1, i64 20
  %12 = load i32, ptr %11, align 4
  %13 = getelementptr inbounds i8, ptr %0, i64 20
  store i32 %12, ptr %13, align 4
  %14 = getelementptr inbounds i8, ptr %1, i64 16
  %15 = load i32, ptr %14, align 8
  %16 = getelementptr inbounds i8, ptr %0, i64 16
  store i32 %15, ptr %16, align 8
  tail call void @_ZN5ceres8internal19TripletSparseMatrix14AllocateMemoryEv(ptr noundef nonnull align 8 dereferenceable(48) %0)
  %17 = load i32, ptr %13, align 4
  %18 = icmp sgt i32 %17, 0
  br i1 %18, label %.lr.ph.i, label %_ZN5ceres8internal19TripletSparseMatrix8CopyDataERKS1_.exit

.lr.ph.i:                                         ; preds = %4
  %19 = getelementptr inbounds i8, ptr %1, i64 24
  %20 = getelementptr inbounds i8, ptr %0, i64 24
  %21 = getelementptr inbounds i8, ptr %1, i64 32
  %22 = getelementptr inbounds i8, ptr %0, i64 32
  %23 = getelementptr inbounds i8, ptr %1, i64 40
  %24 = getelementptr inbounds i8, ptr %0, i64 40
  br label %25

25:                                               ; preds = %25, %.lr.ph.i
  %indvars.iv.i = phi i64 [ 0, %.lr.ph.i ], [ %indvars.iv.next.i, %25 ]
  %26 = load ptr, ptr %19, align 8
  %27 = getelementptr inbounds i32, ptr %26, i64 %indvars.iv.i
  %28 = load i32, ptr %27, align 4
  %29 = load ptr, ptr %20, align 8
  %30 = getelementptr inbounds i32, ptr %29, i64 %indvars.iv.i
  store i32 %28, ptr %30, align 4
  %31 = load ptr, ptr %21, align 8
  %32 = getelementptr inbounds i32, ptr %31, i64 %indvars.iv.i
  %33 = load i32, ptr %32, align 4
  %34 = load ptr, ptr %22, align 8
  %35 = getelementptr inbounds i32, ptr %34, i64 %indvars.iv.i
  store i32 %33, ptr %35, align 4
  %36 = load ptr, ptr %23, align 8
  %37 = getelementptr inbounds double, ptr %36, i64 %indvars.iv.i
  %38 = load double, ptr %37, align 8
  %39 = load ptr, ptr %24, align 8
  %40 = getelementptr inbounds double, ptr %39, i64 %indvars.iv.i
  store double %38, ptr %40, align 8
  %indvars.iv.next.i = add nuw nsw i64 %indvars.iv.i, 1
  %41 = load i32, ptr %13, align 4
  %42 = sext i32 %41 to i64
  %43 = icmp slt i64 %indvars.iv.next.i, %42
  br i1 %43, label %25, label %_ZN5ceres8internal19TripletSparseMatrix8CopyDataERKS1_.exit, !llvm.loop !13

_ZN5ceres8internal19TripletSparseMatrix8CopyDataERKS1_.exit: ; preds = %25, %4, %2
  ret ptr %0
}